target datalayout = "e-m:e-p270:32:32-p271:32:32-p272:64:64-i64:64-i128:128-f80:128-n8:16:32:64-S128"
target triple = "x86_64-pc-linux-gnu"

; Function Attrs: nounwind uwtable
define ptr @Abc_NtkBddDecTry(ptr noundef %0, ptr noundef %1, ptr noundef %2, i32 noundef %3, i32 noundef %4, i32 noundef %5, i32 noundef %6) #0 {
  %8 = alloca ptr, align 8
  %9 = alloca ptr, align 8
  %10 = alloca ptr, align 8
  %11 = alloca i32, align 4
  %12 = alloca i32, align 4
  %13 = alloca i32, align 4
  %14 = alloca i32, align 4
  %15 = alloca ptr, align 8
  store ptr %0, ptr %8, align 8
  store ptr %1, ptr %9, align 8
  store ptr %2, ptr %10, align 8
  store i32 %3, ptr %11, align 4
  store i32 %4, ptr %12, align 4
  store i32 %5, ptr %13, align 4
  store i32 %6, ptr %14, align 4
  %16 = load ptr, ptr %9, align 8
  %17 = load ptr, ptr %10, align 8
  %18 = load i32, ptr %12, align 4
  %19 = load i32, ptr %13, align 4
  %20 = load i32, ptr %14, align 4
  %21 = call ptr @Abc_NtkBddDecCharFunc(ptr noundef %16, ptr noundef %17, i32 noundef %18, i32 noundef %19, i32 noundef %20)
  store ptr %21, ptr %15, align 8
  %22 = load ptr, ptr %15, align 8
  call void @Cudd_Ref(ptr noundef %22)
  %23 = load ptr, ptr %15, align 8
  call void @Cudd_Deref(ptr noundef %23)
  %24 = load ptr, ptr %15, align 8
  ret ptr %24
}

; Function Attrs: nounwind uwtable
define ptr @Abc_NtkBddDecInt(ptr noundef %0, ptr noundef %1, ptr noundef %2, i32 noundef %3, i32 noundef %4) #0 {
  %6 = alloca ptr, align 8
  %7 = alloca ptr, align 8
  %8 = alloca ptr, align 8
  %9 = alloca i32, align 4
  %10 = alloca i32, align 4
  store ptr %0, ptr %6, align 8
  store ptr %1, ptr %7, align 8
  store ptr %2, ptr %8, align 8
  store i32 %3, ptr %9, align 4
  store i32 %4, ptr %10, align 4
  %11 = load ptr, ptr %6, align 8
  %12 = load ptr, ptr %7, align 8
  %13 = load ptr, ptr %8, align 8
  %14 = load i32, ptr %9, align 4
  %15 = load i32, ptr %10, align 4
  %16 = load i32, ptr %10, align 4
  %17 = sub nsw i32 32, %16
  %18 = shl i32 1, %17
  %19 = xor i32 %18, -1
  %20 = load i32, ptr %10, align 4
  %21 = call ptr @Abc_NtkBddDecTry(ptr noundef %11, ptr noundef %12, ptr noundef %13, i32 noundef %14, i32 noundef %15, i32 noundef %19, i32 noundef %20)
  ret ptr %21
}