; Function Attrs: nounwind uwtable
define noundef ptr @Abc_NtkBddDecInt(ptr noundef readnone captures(none) %0, ptr noundef %1, ptr noundef readonly captures(none) %2, i32 noundef %3, i32 noundef %4) local_unnamed_addr #0 {
  %6 = sub nsw i32 32, %4
  %7 = shl nuw i32 1, %6
  %8 = xor i32 %7, -1
  %9 = tail call ptr @Abc_NtkBddDecCharFunc(ptr noundef %1, ptr noundef readonly %2, i32 noundef %4, i32 noundef %8, i32 poison)
  tail call void @Cudd_Ref(ptr noundef %9) #18
  tail call void @Cudd_Deref(ptr noundef %9) #18
  ret ptr %9
}